; Function Attrs: mustprogress nounwind uwtable
define internal void @_ZN3gmx15analysismodules12_GLOBAL__N_121IndexFileWriterModuleD0Ev(ptr noundef nonnull align 8 dereferenceable(81) %0) unnamed_addr #5 align 2 personality ptr @__gxx_personality_v0 {
  store ptr getelementptr inbounds inrange(-16, 80) ({ [12 x ptr] }, ptr @_ZTVN3gmx15analysismodules12_GLOBAL__N_121IndexFileWriterModuleE, i64 0, i32 0, i64 2), ptr %0, align 8
  %2 = getelementptr inbounds i8, ptr %0, i64 64
  %3 = load ptr, ptr %2, align 8
  %.not.i.i = icmp eq ptr %3, null
  br i1 %.not.i.i, label %_ZN3gmx15analysismodules12_GLOBAL__N_121IndexFileWriterModule9closeFileEv.exit.i, label %4

4:                                                ; preds = %1
  %5 = invoke noundef i32 @_Z14gmx_fio_fcloseP8_IO_FILE(ptr noundef nonnull %3)
          to label %.noexc.i unwind label %12

.noexc.i:                                         ; preds = %4
  store ptr null, ptr %2, align 8
  br label %_ZN3gmx15analysismodules12_GLOBAL__N_121IndexFileWriterModule9closeFileEv.exit.i

_ZN3gmx15analysismodules12_GLOBAL__N_121IndexFileWriterModule9closeFileEv.exit.i: ; preds = %.noexc.i, %1
  %6 = getelementptr inbounds i8, ptr %0, i64 40
  %7 = load ptr, ptr %6, align 8
  %8 = getelementptr inbounds i8, ptr %0, i64 48
  %9 = load ptr, ptr %8, align 8
  %.not4.i.i.i.i.i = icmp eq ptr %7, %9
  br i1 %.not4.i.i.i.i.i, label %_ZSt8_DestroyIPN3gmx15analysismodules12_GLOBAL__N_121IndexFileWriterModule9GroupInfoES4_EvT_S6_RSaIT0_E.exit.i.i, label %.lr.ph.i.i.i.i.i

.lr.ph.i.i.i.i.i:                                 ; preds = %_ZN3gmx15analysismodules12_GLOBAL__N_121IndexFileWriterModule9closeFileEv.exit.i, %.lr.ph.i.i.i.i.i
  %.05.i.i.i.i.i = phi ptr [ %10, %.lr.ph.i.i.i.i.i ], [ %7, %_ZN3gmx15analysismodules12_GLOBAL__N_121IndexFileWriterModule9closeFileEv.exit.i ]
  tail call void @_ZNSt7__cxx1112basic_stringIcSt11char_traitsIcESaIcEED1Ev(ptr noundef nonnull align 8 dereferenceable(32) %.05.i.i.i.i.i) #22
  %10 = getelementptr inbounds i8, ptr %.05.i.i.i.i.i, i64 40
  %.not.i.i.i.i.i = icmp eq ptr %10, %9
  br i1 %.not.i.i.i.i.i, label %_ZSt8_DestroyIPN3gmx15analysismodules12_GLOBAL__N_121IndexFileWriterModule9GroupInfoES4_EvT_S6_RSaIT0_E.exitthread-pre-split.i.i, label %.lr.ph.i.i.i.i.i, !llvm.loop !44

_ZSt8_DestroyIPN3gmx15analysismodules12_GLOBAL__N_121IndexFileWriterModule9GroupInfoES4_EvT_S6_RSaIT0_E.exitthread-pre-split.i.i: ; preds = %.lr.ph.i.i.i.i.i
  %.val.pr.i.i = load ptr, ptr %6, align 8
  br label %_ZSt8_DestroyIPN3gmx15analysismodules12_GLOBAL__N_121IndexFileWriterModule9GroupInfoES4_EvT_S6_RSaIT0_E.exit.i.i

_ZSt8_DestroyIPN3gmx15analysismodules12_GLOBAL__N_121IndexFileWriterModule9GroupInfoES4_EvT_S6_RSaIT0_E.exit.i.i: ; preds = %_ZSt8_DestroyIPN3gmx15analysismodules12_GLOBAL__N_121IndexFileWriterModule9GroupInfoES4_EvT_S6_RSaIT0_E.exitthread-pre-split.i.i, %_ZN3gmx15analysismodules12_GLOBAL__N_121IndexFileWriterModule9closeFileEv.exit.i
  %.val.i.i = phi ptr [ %.val.pr.i.i, %_ZSt8_DestroyIPN3gmx15analysismodules12_GLOBAL__N_121IndexFileWriterModule9GroupInfoES4_EvT_S6_RSaIT0_E.exitthread-pre-split.i.i ], [ %7, %_ZN3gmx15analysismodules12_GLOBAL__N_121IndexFileWriterModule9closeFileEv.exit.i ]
  %.not.i.i.i.i = icmp eq ptr %.val.i.i, null
  br i1 %.not.i.i.i.i, label %_ZN3gmx15analysismodules12_GLOBAL__N_121IndexFileWriterModuleD2Ev.exit, label %11

11:                                               ; preds = %_ZSt8_DestroyIPN3gmx15analysismodules12_GLOBAL__N_121IndexFileWriterModule9GroupInfoES4_EvT_S6_RSaIT0_E.exit.i.i
  tail call void @_ZdlPv(ptr noundef nonnull %.val.i.i) #25
  br label %_ZN3gmx15analysismodules12_GLOBAL__N_121IndexFileWriterModuleD2Ev.exit

12:                                               ; preds = %4
  %13 = landingpad { ptr, i32 }
          catch ptr null
  %14 = extractvalue { ptr, i32 } %13, 0
  tail call void @__clang_call_terminate(ptr %14) #24
  unreachable

_ZN3gmx15analysismodules12_GLOBAL__N_121IndexFileWriterModuleD2Ev.exit: ; preds = %_ZSt8_DestroyIPN3gmx15analysismodules12_GLOBAL__N_121IndexFileWriterModule9GroupInfoES4_EvT_S6_RSaIT0_E.exit.i.i, %11
  %15 = getelementptr inbounds i8, ptr %0, i64 8
  tail call void @_ZNSt7__cxx1112basic_stringIcSt11char_traitsIcESaIcEED1Ev(ptr noundef nonnull align 8 dereferenceable(32) %15) #22
  tail call void @_ZdlPv(ptr noundef nonnull %0) #25
  ret void
}